target datalayout = "e-m:e-p270:32:32-p271:32:32-p272:64:64-i64:64-i128:128-f80:128-n8:16:32:64-S128"
target triple = "x86_64-pc-linux-gnu"

; Function Attrs: nounwind uwtable
define void @ma_copy_and_apply_volume_factor_per_channel_f32(ptr noundef %0, ptr noundef %1, i64 noundef %2, i32 noundef %3, ptr noundef %4) #0 {
  %6 = alloca ptr, align 8
  %7 = alloca ptr, align 8
  %8 = alloca i64, align 8
  %9 = alloca i32, align 4
  %10 = alloca ptr, align 8
  %11 = alloca i64, align 8
  %12 = alloca i32, align 4
  store ptr %0, ptr %6, align 8, !tbaa !353
  store ptr %1, ptr %7, align 8, !tbaa !353
  store i64 %2, ptr %8, align 8, !tbaa !47
  store i32 %3, ptr %9, align 4, !tbaa !8
  store ptr %4, ptr %10, align 8, !tbaa !353
  call void @llvm.lifetime.start.p0(i64 8, ptr %11) #16
  %13 = load i32, ptr %9, align 4, !tbaa !8
  %14 = icmp eq i32 %13, 2
  br i1 %14, label %15, label %16

15:                                               ; preds = %5
  br label %16

16:                                               ; preds = %15, %5
  store i64 0, ptr %11, align 8, !tbaa !47
  br label %17

17:                                               ; preds = %56, %16
  %18 = load i64, ptr %11, align 8, !tbaa !47
  %19 = load i64, ptr %8, align 8, !tbaa !47
  %20 = icmp ult i64 %18, %19
  br i1 %20, label %21, label %59

21:                                               ; preds = %17
  call void @llvm.lifetime.start.p0(i64 4, ptr %12) #16
  store i32 0, ptr %12, align 4, !tbaa !8
  br label %22

22:                                               ; preds = %52, %21
  %23 = load i32, ptr %12, align 4, !tbaa !8
  %24 = load i32, ptr %9, align 4, !tbaa !8
  %25 = icmp ult i32 %23, %24
  br i1 %25, label %26, label %55

26:                                               ; preds = %22
  %27 = load ptr, ptr %7, align 8, !tbaa !353
  %28 = load i64, ptr %11, align 8, !tbaa !47
  %29 = load i32, ptr %9, align 4, !tbaa !8
  %30 = zext i32 %29 to i64
  %31 = mul i64 %28, %30
  %32 = load i32, ptr %12, align 4, !tbaa !8
  %33 = zext i32 %32 to i64
  %34 = add i64 %31, %33
  %35 = getelementptr inbounds nuw float, ptr %27, i64 %34
  %36 = load float, ptr %35, align 4, !tbaa !339
  %37 = load ptr, ptr %10, align 8, !tbaa !353
  %38 = load i32, ptr %12, align 4, !tbaa !8
  %39 = zext i32 %38 to i64
  %40 = getelementptr inbounds nuw float, ptr %37, i64 %39
  %41 = load float, ptr %40, align 4, !tbaa !339
  %42 = fmul float %36, %41
  %43 = load ptr, ptr %6, align 8, !tbaa !353
  %44 = load i64, ptr %11, align 8, !tbaa !47
  %45 = load i32, ptr %9, align 4, !tbaa !8
  %46 = zext i32 %45 to i64
  %47 = mul i64 %44, %46
  %48 = load i32, ptr %12, align 4, !tbaa !8
  %49 = zext i32 %48 to i64
  %50 = add i64 %47, %49
  %51 = getelementptr inbounds nuw float, ptr %43, i64 %50
  store float %42, ptr %51, align 4, !tbaa !339
  br label %52

52:                                               ; preds = %26
  %53 = load i32, ptr %12, align 4, !tbaa !8
  %54 = add i32 %53, 1
  store i32 %54, ptr %12, align 4, !tbaa !8
  br label %22, !llvm.loop !373

55:                                               ; preds = %22
  call void @llvm.lifetime.end.p0(i64 4, ptr %12) #16
  br label %56

56:                                               ; preds = %55
  %57 = load i64, ptr %11, align 8, !tbaa !47
  %58 = add i64 %57, 1
  store i64 %58, ptr %11, align 8, !tbaa !47
  br label %17, !llvm.loop !374

59:                                               ; preds = %17
  call void @llvm.lifetime.end.p0(i64 8, ptr %11) #16
  ret void
}