; Function Attrs: nofree norecurse nosync nounwind memory(argmem: readwrite) uwtable
define void @ma_copy_and_apply_volume_factor_per_channel_f32(ptr noundef writeonly captures(none) %0, ptr noundef readonly captures(none) %1, i64 noundef %2, i32 noundef %3, ptr noundef readonly captures(none) %4) local_unnamed_addr #23 {
  %.not = icmp eq i64 %2, 0
  br i1 %.not, label %._crit_edge20, label %.preheader.lr.ph

.preheader.lr.ph:                                 ; preds = %5
  %.not21 = icmp eq i32 %3, 0
  %6 = zext i32 %3 to i64
  br i1 %.not21, label %._crit_edge20, label %.preheader.us

.preheader.us:                                    ; preds = %.preheader.lr.ph, %._crit_edge.us
  %.01619.us = phi i64 [ %16, %._crit_edge.us ], [ 0, %.preheader.lr.ph ]
  %7 = mul i64 %.01619.us, %6
  br label %8

8:                                                ; preds = %.preheader.us, %8
  %indvars.iv = phi i64 [ 0, %.preheader.us ], [ %indvars.iv.next, %8 ]
  %9 = add i64 %7, %indvars.iv
  %10 = getelementptr inbounds nuw float, ptr %1, i64 %9
  %11 = load float, ptr %10, align 4, !tbaa !339
  %12 = getelementptr inbounds nuw float, ptr %4, i64 %indvars.iv
  %13 = load float, ptr %12, align 4, !tbaa !339
  %14 = fmul float %11, %13
  %15 = getelementptr inbounds nuw float, ptr %0, i64 %9
  store float %14, ptr %15, align 4, !tbaa !339
  %indvars.iv.next = add nuw nsw i64 %indvars.iv, 1
  %exitcond.not = icmp eq i64 %indvars.iv.next, %6
  br i1 %exitcond.not, label %._crit_edge.us, label %8, !llvm.loop !366

._crit_edge.us:                                   ; preds = %8
  %16 = add nuw i64 %.01619.us, 1
  %exitcond24.not = icmp eq i64 %16, %2
  br i1 %exitcond24.not, label %._crit_edge20, label %.preheader.us, !llvm.loop !367

._crit_edge20:                                    ; preds = %._crit_edge.us, %.preheader.lr.ph, %5
  ret void
}